; Function Attrs: nounwind uwtable
define internal fastcc i32 @ftp_state_list(ptr noundef %0) unnamed_addr #0 {
  %2 = alloca ptr, align 8
  %3 = getelementptr inbounds nuw i8, ptr %0, i64 24
  %4 = load ptr, ptr %3, align 8, !tbaa !105
  %5 = getelementptr inbounds nuw i8, ptr %0, i64 1764
  %6 = load i8, ptr %5, align 4, !tbaa !119
  %7 = icmp eq i8 %6, 2
  br i1 %7, label %8, label %26

8:                                                ; preds = %1
  %9 = getelementptr inbounds nuw i8, ptr %0, i64 440
  %10 = load ptr, ptr %9, align 8, !tbaa !20
  %11 = load ptr, ptr %10, align 8, !tbaa !84
  %.not = icmp eq ptr %11, null
  br i1 %.not, label %26, label %12

12:                                               ; preds = %8
  call void @llvm.lifetime.start.p0(i64 8, ptr nonnull %2) #10
  store ptr null, ptr %2, align 8, !tbaa !7
  %13 = call i32 @Curl_urldecode(ptr noundef nonnull %11, i64 noundef 0, ptr noundef nonnull %2, ptr noundef null, i32 noundef 3) #10
  %.not38 = icmp eq i32 %13, 0
  br i1 %.not38, label %14, label %25

14:                                               ; preds = %12
  %15 = load ptr, ptr %2, align 8, !tbaa !7
  %16 = call ptr @strrchr(ptr noundef nonnull dereferenceable(1) %15, i32 noundef 47) #11
  %.not39 = icmp eq ptr %16, null
  br i1 %.not39, label %23, label %17

17:                                               ; preds = %14
  %18 = ptrtoint ptr %16 to i64
  %19 = ptrtoint ptr %15 to i64
  %20 = sub i64 %18, %19
  %21 = icmp eq ptr %16, %15
  %spec.select = select i1 %21, i64 1, i64 %20
  %22 = getelementptr inbounds nuw i8, ptr %15, i64 %spec.select
  store i8 0, ptr %22, align 1, !tbaa !20
  br label %.thread

23:                                               ; preds = %14
  %24 = load ptr, ptr @Curl_cfree, align 8, !tbaa !3
  call void %24(ptr noundef nonnull %15) #10
  br label %.thread

.thread:                                          ; preds = %17, %23
  %.132.ph = phi ptr [ null, %23 ], [ %15, %17 ]
  call void @llvm.lifetime.end.p0(i64 8, ptr nonnull %2) #10
  br label %26

25:                                               ; preds = %12
  call void @llvm.lifetime.end.p0(i64 8, ptr nonnull %2) #10
  br label %66

26:                                               ; preds = %.thread, %8, %1
  %.031 = phi ptr [ null, %8 ], [ null, %1 ], [ %.132.ph, %.thread ]
  %27 = getelementptr inbounds nuw i8, ptr %0, i64 2024
  %28 = load ptr, ptr %27, align 8, !tbaa !7
  %.not40 = icmp eq ptr %28, null
  br i1 %.not40, label %29, label %34

29:                                               ; preds = %26
  %30 = getelementptr inbounds nuw i8, ptr %0, i64 5036
  %31 = load i32, ptr %30, align 4
  %32 = and i32 %31, 32768
  %.not41 = icmp eq i32 %32, 0
  %33 = select i1 %.not41, ptr @.str.40, ptr @.str.90
  br label %34

34:                                               ; preds = %26, %29
  %35 = phi ptr [ %33, %29 ], [ %28, %26 ]
  %.not42 = icmp eq ptr %.031, null
  %36 = select i1 %.not42, ptr @.str.65, ptr @.str.117
  %37 = select i1 %.not42, ptr @.str.65, ptr %.031
  %38 = call ptr (ptr, ...) @curl_maprintf(ptr noundef nonnull @.str.116, ptr noundef nonnull %35, ptr noundef nonnull %36, ptr noundef nonnull %37) #10
  %39 = load ptr, ptr @Curl_cfree, align 8, !tbaa !3
  call void %39(ptr noundef %.031) #10
  %.not43 = icmp eq ptr %38, null
  br i1 %.not43, label %66, label %40

40:                                               ; preds = %34
  %41 = getelementptr inbounds nuw i8, ptr %4, i64 1088
  %42 = call i32 (ptr, ptr, ptr, ...) @Curl_pp_sendf(ptr noundef nonnull %0, ptr noundef nonnull %41, ptr noundef nonnull @.str.51, ptr noundef nonnull %38) #10
  %43 = load ptr, ptr @Curl_cfree, align 8, !tbaa !3
  call void %43(ptr noundef nonnull %38) #10
  %.not44 = icmp eq i32 %42, 0
  br i1 %.not44, label %44, label %66

44:                                               ; preds = %40
  %45 = load ptr, ptr %3, align 8, !tbaa !105
  %46 = getelementptr inbounds nuw i8, ptr %45, i64 1358
  %47 = load i8, ptr %46, align 2, !tbaa !136
  %.not46 = icmp eq i8 %47, 31
  br i1 %.not46, label %_ftp_state.exit, label %48

48:                                               ; preds = %44
  %49 = getelementptr inbounds nuw i8, ptr %0, i64 2658
  %50 = load i64, ptr %49, align 2
  %51 = and i64 %50, 2147483648
  %.not.i = icmp eq i64 %51, 0
  br i1 %.not.i, label %_ftp_state.exit, label %52

52:                                               ; preds = %48
  %53 = getelementptr inbounds nuw i8, ptr %0, i64 4864
  %54 = load ptr, ptr %53, align 8, !tbaa !102
  %.not20.i = icmp eq ptr %54, null
  br i1 %.not20.i, label %61, label %55

55:                                               ; preds = %52
  %56 = getelementptr inbounds nuw i8, ptr %54, i64 8
  %57 = load i32, ptr %56, align 8, !tbaa !103
  %58 = icmp sgt i32 %57, 0
  %59 = load i32, ptr getelementptr inbounds nuw (i8, ptr @Curl_trc_feat_ftp, i64 8), align 8
  %60 = icmp sgt i32 %59, 0
  %or.cond.i = select i1 %58, i1 %60, i1 false
  br i1 %or.cond.i, label %62, label %_ftp_state.exit

61:                                               ; preds = %52
  %.old.i = load i32, ptr getelementptr inbounds nuw (i8, ptr @Curl_trc_feat_ftp, i64 8), align 8, !tbaa !103
  %.old1.i = icmp sgt i32 %.old.i, 0
  br i1 %.old1.i, label %62, label %_ftp_state.exit

62:                                               ; preds = %61, %55
  %63 = zext i8 %47 to i64
  %64 = getelementptr inbounds nuw [35 x ptr], ptr @ftp_state_names, i64 0, i64 %63
  %65 = load ptr, ptr %64, align 8, !tbaa !7
  call void (ptr, ptr, ...) @Curl_trc_ftp(ptr noundef nonnull %0, ptr noundef nonnull @.str.7, ptr noundef %65, ptr noundef nonnull @.str.40) #10
  br label %_ftp_state.exit

_ftp_state.exit:                                  ; preds = %44, %48, %55, %61, %62
  store i8 31, ptr %46, align 2, !tbaa !136
  br label %66

66:                                               ; preds = %25, %40, %_ftp_state.exit, %34
  %.1 = phi i32 [ %13, %25 ], [ 27, %34 ], [ 0, %_ftp_state.exit ], [ %42, %40 ]
  ret i32 %.1
}